; Function Attrs: nounwind uwtable
define ptr @initialize_Lake_Util_Exit(i8 noundef zeroext %0, ptr noundef readnone captures(none) %1) local_unnamed_addr #0 {
  %.b4 = load i1, ptr @_G_initialized, align 1
  br i1 %.b4, label %3, label %7

3:                                                ; preds = %2
  tail call void @lean_inc_heartbeat() #3
  %4 = tail call noalias ptr @mi_malloc_small(i64 noundef 24) #3
  %5 = icmp eq ptr %4, null
  br i1 %5, label %6, label %.sink.split

6:                                                ; preds = %3
  tail call void @lean_internal_panic_out_of_memory() #4
  unreachable

7:                                                ; preds = %2
  store i1 true, ptr @_G_initialized, align 1
  %8 = tail call ptr @initialize_Init_Data_UInt_Basic(i8 noundef zeroext %0, ptr noundef nonnull inttoptr (i64 1 to ptr)) #3
  %9 = getelementptr i8, ptr %8, i64 4
  %.val = load i32, ptr %9, align 4
  %.mask.i = and i32 %.val, -16777216
  %10 = icmp eq i32 %.mask.i, 16777216
  br i1 %10, label %24, label %11

11:                                               ; preds = %7
  %12 = load i32, ptr %8, align 4, !tbaa !4
  %13 = icmp sgt i32 %12, 1
  br i1 %13, label %14, label %16, !prof !13

14:                                               ; preds = %11
  %15 = add nsw i32 %12, -1
  store i32 %15, ptr %8, align 4, !tbaa !4
  br label %lean_dec_ref.exit

16:                                               ; preds = %11
  %.not.i = icmp eq i32 %12, 0
  br i1 %.not.i, label %lean_dec_ref.exit, label %17

17:                                               ; preds = %16
  tail call void @lean_dec_ref_cold(ptr noundef nonnull %8) #3
  br label %lean_dec_ref.exit

lean_dec_ref.exit:                                ; preds = %14, %16, %17
  tail call void @lean_inc_heartbeat() #3
  %18 = tail call noalias ptr @mi_malloc_small(i64 noundef 24) #3
  %19 = icmp eq ptr %18, null
  br i1 %19, label %20, label %.sink.split

20:                                               ; preds = %lean_dec_ref.exit
  tail call void @lean_internal_panic_out_of_memory() #4
  unreachable

.sink.split:                                      ; preds = %lean_dec_ref.exit, %3
  %.sink9 = phi ptr [ %4, %3 ], [ %18, %lean_dec_ref.exit ]
  %21 = getelementptr inbounds nuw i8, ptr %.sink9, i64 4
  store i32 1, ptr %.sink9, align 4, !tbaa !4
  store i32 131096, ptr %21, align 4
  %22 = getelementptr inbounds nuw i8, ptr %.sink9, i64 8
  store ptr inttoptr (i64 1 to ptr), ptr %22, align 8, !tbaa !9
  %23 = getelementptr inbounds nuw i8, ptr %.sink9, i64 16
  store ptr inttoptr (i64 1 to ptr), ptr %23, align 8, !tbaa !9
  br label %24

24:                                               ; preds = %.sink.split, %7
  %.0 = phi ptr [ %8, %7 ], [ %.sink9, %.sink.split ]
  ret ptr %.0
}